target datalayout = "e-m:e-p270:32:32-p271:32:32-p272:64:64-i64:64-i128:128-f80:128-n8:16:32:64-S128"
target triple = "x86_64-pc-linux-gnu"

%struct.OptContext = type { ptr, ptr, %struct.TCGTempSet, %struct.RBRootLeftCached, %struct.anon, i32 }
%struct.TCGTempSet = type { [8 x i64] }
%struct.RBRootLeftCached = type { %struct.RBRoot, ptr }
%struct.RBRoot = type { ptr }
%struct.anon = type { ptr, ptr }
%struct.TCGTemp = type { i64, i64, ptr, i64, ptr, i64, ptr }
%struct.TempOptInfo = type { i8, ptr, ptr, %struct.anon.3, i64, i64, i64 }
%struct.anon.3 = type { ptr, ptr }
%struct.MemCopyInfo = type { %struct.IntervalTreeNode, %struct.anon.4, ptr, i32 }
%struct.IntervalTreeNode = type { %struct.RBNode, i64, i64, i64 }
%struct.RBNode = type { i64, ptr, ptr }
%struct.anon.4 = type { ptr }

; Function Attrs: nounwind sspstrong uwtable
define internal ptr @cmp_better_copy(ptr noundef %0, ptr noundef %1) #0 {
  %3 = alloca ptr, align 8
  %4 = alloca ptr, align 8
  store ptr %0, ptr %3, align 8
  store ptr %1, ptr %4, align 8
  %5 = load ptr, ptr %3, align 8
  %6 = load i64, ptr %5, align 8
  %7 = lshr i64 %6, 32
  %8 = and i64 %7, 7
  %9 = trunc i64 %8 to i32
  %10 = load ptr, ptr %4, align 8
  %11 = load i64, ptr %10, align 8
  %12 = lshr i64 %11, 32
  %13 = and i64 %12, 7
  %14 = trunc i64 %13 to i32
  %15 = icmp slt i32 %9, %14
  br i1 %15, label %16, label %18

16:                                               ; preds = %2
  %17 = load ptr, ptr %4, align 8
  br label %20

18:                                               ; preds = %2
  %19 = load ptr, ptr %3, align 8
  br label %20

20:                                               ; preds = %18, %16
  %21 = phi ptr [ %17, %16 ], [ %19, %18 ]
  ret ptr %21
}

; Function Attrs: inlinehint nounwind sspstrong uwtable
define internal zeroext i1 @temp_readonly(ptr noundef %0) #3 {
  %2 = alloca ptr, align 8
  store ptr %0, ptr %2, align 8
  %3 = load ptr, ptr %2, align 8
  %4 = load i64, ptr %3, align 8
  %5 = lshr i64 %4, 32
  %6 = and i64 %5, 7
  %7 = trunc i64 %6 to i32
  %8 = icmp sge i32 %7, 3
  ret i1 %8
}

; Function Attrs: nounwind sspstrong uwtable
define internal void @move_mem_copies(ptr noundef %0, ptr noundef %1) #0 {
  %3 = alloca ptr, align 8
  %4 = alloca ptr, align 8
  %5 = alloca ptr, align 8
  %6 = alloca ptr, align 8
  %7 = alloca ptr, align 8
  store ptr %0, ptr %3, align 8
  store ptr %1, ptr %4, align 8
  call void @llvm.lifetime.start.p0(i64 8, ptr %5) #13
  %8 = load ptr, ptr %4, align 8
  %9 = call ptr @ts_info(ptr noundef %8)
  store ptr %9, ptr %5, align 8
  call void @llvm.lifetime.start.p0(i64 8, ptr %6) #13
  %10 = load ptr, ptr %3, align 8
  %11 = call ptr @ts_info(ptr noundef %10)
  store ptr %11, ptr %6, align 8
  call void @llvm.lifetime.start.p0(i64 8, ptr %7) #13
  store ptr null, ptr %7, align 8, !annotation !4
  %12 = load ptr, ptr %5, align 8
  %13 = getelementptr inbounds nuw %struct.TempOptInfo, ptr %12, i32 0, i32 3
  %14 = getelementptr inbounds nuw %struct.anon.3, ptr %13, i32 0, i32 0
  %15 = load ptr, ptr %14, align 8
  store ptr %15, ptr %7, align 8
  br label %16

16:                                               ; preds = %33, %2
  %17 = load ptr, ptr %7, align 8
  %18 = icmp ne ptr %17, null
  br i1 %18, label %19, label %38

19:                                               ; preds = %16
  br label %20

20:                                               ; preds = %19
  %21 = load ptr, ptr %7, align 8
  %22 = getelementptr inbounds nuw %struct.MemCopyInfo, ptr %21, i32 0, i32 2
  %23 = load ptr, ptr %22, align 8
  %24 = load ptr, ptr %4, align 8
  %25 = icmp eq ptr %23, %24
  br i1 %25, label %27, label %26

26:                                               ; preds = %20
  unreachable

27:                                               ; preds = %20
  br label %28

28:                                               ; preds = %27
  br label %29

29:                                               ; preds = %28
  %30 = load ptr, ptr %3, align 8
  %31 = load ptr, ptr %7, align 8
  %32 = getelementptr inbounds nuw %struct.MemCopyInfo, ptr %31, i32 0, i32 2
  store ptr %30, ptr %32, align 8
  br label %33

33:                                               ; preds = %29
  %34 = load ptr, ptr %7, align 8
  %35 = getelementptr inbounds nuw %struct.MemCopyInfo, ptr %34, i32 0, i32 1
  %36 = getelementptr inbounds nuw %struct.anon.4, ptr %35, i32 0, i32 0
  %37 = load ptr, ptr %36, align 8
  store ptr %37, ptr %7, align 8
  br label %16, !llvm.loop !17

38:                                               ; preds = %16
  br label %39

39:                                               ; preds = %38
  %40 = load ptr, ptr %5, align 8
  %41 = getelementptr inbounds nuw %struct.TempOptInfo, ptr %40, i32 0, i32 3
  %42 = getelementptr inbounds nuw %struct.anon.3, ptr %41, i32 0, i32 0
  %43 = load ptr, ptr %42, align 8
  %44 = icmp eq ptr %43, null
  br i1 %44, label %73, label %45

45:                                               ; preds = %39
  %46 = load ptr, ptr %5, align 8
  %47 = getelementptr inbounds nuw %struct.TempOptInfo, ptr %46, i32 0, i32 3
  %48 = getelementptr inbounds nuw %struct.anon.3, ptr %47, i32 0, i32 0
  %49 = load ptr, ptr %48, align 8
  %50 = load ptr, ptr %6, align 8
  %51 = getelementptr inbounds nuw %struct.TempOptInfo, ptr %50, i32 0, i32 3
  %52 = getelementptr inbounds nuw %struct.anon.3, ptr %51, i32 0, i32 1
  %53 = load ptr, ptr %52, align 8
  store ptr %49, ptr %53, align 8
  %54 = load ptr, ptr %5, align 8
  %55 = getelementptr inbounds nuw %struct.TempOptInfo, ptr %54, i32 0, i32 3
  %56 = getelementptr inbounds nuw %struct.anon.3, ptr %55, i32 0, i32 1
  %57 = load ptr, ptr %56, align 8
  %58 = load ptr, ptr %6, align 8
  %59 = getelementptr inbounds nuw %struct.TempOptInfo, ptr %58, i32 0, i32 3
  %60 = getelementptr inbounds nuw %struct.anon.3, ptr %59, i32 0, i32 1
  store ptr %57, ptr %60, align 8
  br label %61

61:                                               ; preds = %45
  %62 = load ptr, ptr %5, align 8
  %63 = getelementptr inbounds nuw %struct.TempOptInfo, ptr %62, i32 0, i32 3
  %64 = getelementptr inbounds nuw %struct.anon.3, ptr %63, i32 0, i32 0
  store ptr null, ptr %64, align 8
  %65 = load ptr, ptr %5, align 8
  %66 = getelementptr inbounds nuw %struct.TempOptInfo, ptr %65, i32 0, i32 3
  %67 = getelementptr inbounds nuw %struct.anon.3, ptr %66, i32 0, i32 0
  %68 = load ptr, ptr %5, align 8
  %69 = getelementptr inbounds nuw %struct.TempOptInfo, ptr %68, i32 0, i32 3
  %70 = getelementptr inbounds nuw %struct.anon.3, ptr %69, i32 0, i32 1
  store ptr %67, ptr %70, align 8
  br label %71

71:                                               ; preds = %61
  br label %72

72:                                               ; preds = %71
  br label %73

73:                                               ; preds = %72, %39
  br label %74

74:                                               ; preds = %73
  br label %75

75:                                               ; preds = %74
  call void @llvm.lifetime.end.p0(i64 8, ptr %7) #13
  call void @llvm.lifetime.end.p0(i64 8, ptr %6) #13
  call void @llvm.lifetime.end.p0(i64 8, ptr %5) #13
  ret void
}

; Function Attrs: nounwind sspstrong uwtable
define internal ptr @find_better_copy(ptr noundef %0) #0 {
  %2 = alloca ptr, align 8
  %3 = alloca ptr, align 8
  %4 = alloca ptr, align 8
  %5 = alloca ptr, align 8
  %6 = alloca i32, align 4
  store ptr %0, ptr %3, align 8
  call void @llvm.lifetime.start.p0(i64 8, ptr %4) #13
  store ptr null, ptr %4, align 8, !annotation !4
  call void @llvm.lifetime.start.p0(i64 8, ptr %5) #13
  store ptr null, ptr %5, align 8, !annotation !4
  %7 = load ptr, ptr %3, align 8
  %8 = call zeroext i1 @temp_readonly(ptr noundef %7)
  br i1 %8, label %9, label %11

9:                                                ; preds = %1
  %10 = load ptr, ptr %3, align 8
  store ptr %10, ptr %2, align 8
  store i32 1, ptr %6, align 4
  br label %32

11:                                               ; preds = %1
  %12 = load ptr, ptr %3, align 8
  store ptr %12, ptr %5, align 8
  %13 = load ptr, ptr %3, align 8
  %14 = call ptr @ts_info(ptr noundef %13)
  %15 = getelementptr inbounds nuw %struct.TempOptInfo, ptr %14, i32 0, i32 2
  %16 = load ptr, ptr %15, align 8
  store ptr %16, ptr %4, align 8
  br label %17

17:                                               ; preds = %25, %11
  %18 = load ptr, ptr %4, align 8
  %19 = load ptr, ptr %3, align 8
  %20 = icmp ne ptr %18, %19
  br i1 %20, label %21, label %30

21:                                               ; preds = %17
  %22 = load ptr, ptr %5, align 8
  %23 = load ptr, ptr %4, align 8
  %24 = call ptr @cmp_better_copy(ptr noundef %22, ptr noundef %23)
  store ptr %24, ptr %5, align 8
  br label %25

25:                                               ; preds = %21
  %26 = load ptr, ptr %4, align 8
  %27 = call ptr @ts_info(ptr noundef %26)
  %28 = getelementptr inbounds nuw %struct.TempOptInfo, ptr %27, i32 0, i32 2
  %29 = load ptr, ptr %28, align 8
  store ptr %29, ptr %4, align 8
  br label %17, !llvm.loop !18

30:                                               ; preds = %17
  %31 = load ptr, ptr %5, align 8
  store ptr %31, ptr %2, align 8
  store i32 1, ptr %6, align 4
  br label %32

32:                                               ; preds = %30, %9
  call void @llvm.lifetime.end.p0(i64 8, ptr %5) #13
  call void @llvm.lifetime.end.p0(i64 8, ptr %4) #13
  %33 = load ptr, ptr %2, align 8
  ret ptr %33
}

; Function Attrs: inlinehint nounwind sspstrong uwtable
define internal ptr @ts_info(ptr noundef %0) #3 {
  %2 = alloca ptr, align 8
  store ptr %0, ptr %2, align 8
  %3 = load ptr, ptr %2, align 8
  %4 = getelementptr inbounds nuw %struct.TCGTemp, ptr %3, i32 0, i32 6
  %5 = load ptr, ptr %4, align 8
  ret ptr %5
}

; Function Attrs: nounwind sspstrong uwtable
define internal void @reset_ts(ptr noundef %0, ptr noundef %1) #0 {
  %3 = alloca ptr, align 8
  %4 = alloca ptr, align 8
  %5 = alloca ptr, align 8
  %6 = alloca ptr, align 8
  %7 = alloca ptr, align 8
  %8 = alloca ptr, align 8
  %9 = alloca ptr, align 8
  %10 = alloca ptr, align 8
  store ptr %0, ptr %3, align 8
  store ptr %1, ptr %4, align 8
  call void @llvm.lifetime.start.p0(i64 8, ptr %5) #13
  %11 = load ptr, ptr %4, align 8
  %12 = call ptr @ts_info(ptr noundef %11)
  store ptr %12, ptr %5, align 8
  call void @llvm.lifetime.start.p0(i64 8, ptr %6) #13
  %13 = load ptr, ptr %5, align 8
  %14 = getelementptr inbounds nuw %struct.TempOptInfo, ptr %13, i32 0, i32 1
  %15 = load ptr, ptr %14, align 8
  store ptr %15, ptr %6, align 8
  call void @llvm.lifetime.start.p0(i64 8, ptr %7) #13
  %16 = load ptr, ptr %5, align 8
  %17 = getelementptr inbounds nuw %struct.TempOptInfo, ptr %16, i32 0, i32 2
  %18 = load ptr, ptr %17, align 8
  store ptr %18, ptr %7, align 8
  call void @llvm.lifetime.start.p0(i64 8, ptr %8) #13
  %19 = load ptr, ptr %6, align 8
  %20 = call ptr @ts_info(ptr noundef %19)
  store ptr %20, ptr %8, align 8
  call void @llvm.lifetime.start.p0(i64 8, ptr %9) #13
  %21 = load ptr, ptr %7, align 8
  %22 = call ptr @ts_info(ptr noundef %21)
  store ptr %22, ptr %9, align 8
  %23 = load ptr, ptr %5, align 8
  %24 = getelementptr inbounds nuw %struct.TempOptInfo, ptr %23, i32 0, i32 1
  %25 = load ptr, ptr %24, align 8
  %26 = load ptr, ptr %9, align 8
  %27 = getelementptr inbounds nuw %struct.TempOptInfo, ptr %26, i32 0, i32 1
  store ptr %25, ptr %27, align 8
  %28 = load ptr, ptr %5, align 8
  %29 = getelementptr inbounds nuw %struct.TempOptInfo, ptr %28, i32 0, i32 2
  %30 = load ptr, ptr %29, align 8
  %31 = load ptr, ptr %8, align 8
  %32 = getelementptr inbounds nuw %struct.TempOptInfo, ptr %31, i32 0, i32 2
  store ptr %30, ptr %32, align 8
  %33 = load ptr, ptr %4, align 8
  %34 = load ptr, ptr %5, align 8
  %35 = getelementptr inbounds nuw %struct.TempOptInfo, ptr %34, i32 0, i32 2
  store ptr %33, ptr %35, align 8
  %36 = load ptr, ptr %4, align 8
  %37 = load ptr, ptr %5, align 8
  %38 = getelementptr inbounds nuw %struct.TempOptInfo, ptr %37, i32 0, i32 1
  store ptr %36, ptr %38, align 8
  %39 = load ptr, ptr %5, align 8
  %40 = getelementptr inbounds nuw %struct.TempOptInfo, ptr %39, i32 0, i32 0
  store i8 0, ptr %40, align 8
  %41 = load ptr, ptr %5, align 8
  %42 = getelementptr inbounds nuw %struct.TempOptInfo, ptr %41, i32 0, i32 5
  store i64 -1, ptr %42, align 8
  %43 = load ptr, ptr %5, align 8
  %44 = getelementptr inbounds nuw %struct.TempOptInfo, ptr %43, i32 0, i32 6
  store i64 0, ptr %44, align 8
  %45 = load ptr, ptr %5, align 8
  %46 = getelementptr inbounds nuw %struct.TempOptInfo, ptr %45, i32 0, i32 3
  %47 = getelementptr inbounds nuw %struct.anon.3, ptr %46, i32 0, i32 0
  %48 = load ptr, ptr %47, align 8
  %49 = icmp eq ptr %48, null
  br i1 %49, label %115, label %50

50:                                               ; preds = %2
  %51 = load ptr, ptr %4, align 8
  %52 = load ptr, ptr %7, align 8
  %53 = icmp eq ptr %51, %52
  br i1 %53, label %54, label %110

54:                                               ; preds = %50
  call void @llvm.lifetime.start.p0(i64 8, ptr %10) #13
  store ptr null, ptr %10, align 8, !annotation !4
  %55 = load ptr, ptr %5, align 8
  %56 = getelementptr inbounds nuw %struct.TempOptInfo, ptr %55, i32 0, i32 3
  %57 = getelementptr inbounds nuw %struct.anon.3, ptr %56, i32 0, i32 0
  %58 = load ptr, ptr %57, align 8
  store ptr %58, ptr %10, align 8
  br label %59

59:                                               ; preds = %67, %54
  %60 = load ptr, ptr %10, align 8
  %61 = icmp ne ptr %60, null
  br i1 %61, label %62, label %72

62:                                               ; preds = %59
  %63 = load ptr, ptr %10, align 8
  %64 = getelementptr inbounds nuw %struct.MemCopyInfo, ptr %63, i32 0, i32 0
  %65 = load ptr, ptr %3, align 8
  %66 = getelementptr inbounds nuw %struct.OptContext, ptr %65, i32 0, i32 3
  call void @interval_tree_remove(ptr noundef %64, ptr noundef %66)
  br label %67

67:                                               ; preds = %62
  %68 = load ptr, ptr %10, align 8
  %69 = getelementptr inbounds nuw %struct.MemCopyInfo, ptr %68, i32 0, i32 1
  %70 = getelementptr inbounds nuw %struct.anon.4, ptr %69, i32 0, i32 0
  %71 = load ptr, ptr %70, align 8
  store ptr %71, ptr %10, align 8
  br label %59, !llvm.loop !16

72:                                               ; preds = %59
  br label %73

73:                                               ; preds = %72
  %74 = load ptr, ptr %5, align 8
  %75 = getelementptr inbounds nuw %struct.TempOptInfo, ptr %74, i32 0, i32 3
  %76 = getelementptr inbounds nuw %struct.anon.3, ptr %75, i32 0, i32 0
  %77 = load ptr, ptr %76, align 8
  %78 = icmp eq ptr %77, null
  br i1 %78, label %107, label %79

79:                                               ; preds = %73
  %80 = load ptr, ptr %5, align 8
  %81 = getelementptr inbounds nuw %struct.TempOptInfo, ptr %80, i32 0, i32 3
  %82 = getelementptr inbounds nuw %struct.anon.3, ptr %81, i32 0, i32 0
  %83 = load ptr, ptr %82, align 8
  %84 = load ptr, ptr %3, align 8
  %85 = getelementptr inbounds nuw %struct.OptContext, ptr %84, i32 0, i32 4
  %86 = getelementptr inbounds nuw %struct.anon, ptr %85, i32 0, i32 1
  %87 = load ptr, ptr %86, align 8
  store ptr %83, ptr %87, align 8
  %88 = load ptr, ptr %5, align 8
  %89 = getelementptr inbounds nuw %struct.TempOptInfo, ptr %88, i32 0, i32 3
  %90 = getelementptr inbounds nuw %struct.anon.3, ptr %89, i32 0, i32 1
  %91 = load ptr, ptr %90, align 8
  %92 = load ptr, ptr %3, align 8
  %93 = getelementptr inbounds nuw %struct.OptContext, ptr %92, i32 0, i32 4
  %94 = getelementptr inbounds nuw %struct.anon, ptr %93, i32 0, i32 1
  store ptr %91, ptr %94, align 8
  br label %95

95:                                               ; preds = %79
  %96 = load ptr, ptr %5, align 8
  %97 = getelementptr inbounds nuw %struct.TempOptInfo, ptr %96, i32 0, i32 3
  %98 = getelementptr inbounds nuw %struct.anon.3, ptr %97, i32 0, i32 0
  store ptr null, ptr %98, align 8
  %99 = load ptr, ptr %5, align 8
  %100 = getelementptr inbounds nuw %struct.TempOptInfo, ptr %99, i32 0, i32 3
  %101 = getelementptr inbounds nuw %struct.anon.3, ptr %100, i32 0, i32 0
  %102 = load ptr, ptr %5, align 8
  %103 = getelementptr inbounds nuw %struct.TempOptInfo, ptr %102, i32 0, i32 3
  %104 = getelementptr inbounds nuw %struct.anon.3, ptr %103, i32 0, i32 1
  store ptr %101, ptr %104, align 8
  br label %105

105:                                              ; preds = %95
  br label %106

106:                                              ; preds = %105
  br label %107

107:                                              ; preds = %106, %73
  br label %108

108:                                              ; preds = %107
  br label %109

109:                                              ; preds = %108
  call void @llvm.lifetime.end.p0(i64 8, ptr %10) #13
  br label %114

110:                                              ; preds = %50
  %111 = load ptr, ptr %7, align 8
  %112 = call ptr @find_better_copy(ptr noundef %111)
  %113 = load ptr, ptr %4, align 8
  call void @move_mem_copies(ptr noundef %112, ptr noundef %113)
  br label %114

114:                                              ; preds = %110, %109
  br label %115

115:                                              ; preds = %114, %2
  call void @llvm.lifetime.end.p0(i64 8, ptr %9) #13
  call void @llvm.lifetime.end.p0(i64 8, ptr %8) #13
  call void @llvm.lifetime.end.p0(i64 8, ptr %7) #13
  call void @llvm.lifetime.end.p0(i64 8, ptr %6) #13
  call void @llvm.lifetime.end.p0(i64 8, ptr %5) #13
  ret void
}