; Function Attrs: nounwind sspstrong uwtable
define internal fastcc void @reset_ts(ptr noundef nonnull %0, ptr noundef %1) unnamed_addr #0 {
  %3 = getelementptr i8, ptr %1, i64 48
  %.val = load ptr, ptr %3, align 8
  %4 = getelementptr inbounds nuw i8, ptr %.val, i64 8
  %5 = load ptr, ptr %4, align 8
  %6 = getelementptr inbounds nuw i8, ptr %.val, i64 16
  %7 = load ptr, ptr %6, align 8
  %8 = getelementptr i8, ptr %5, i64 48
  %.val38 = load ptr, ptr %8, align 8
  %9 = getelementptr i8, ptr %7, i64 48
  %.val39 = load ptr, ptr %9, align 8
  %10 = getelementptr inbounds nuw i8, ptr %.val39, i64 8
  store ptr %5, ptr %10, align 8
  %11 = load ptr, ptr %6, align 8
  %12 = getelementptr inbounds nuw i8, ptr %.val38, i64 16
  store ptr %11, ptr %12, align 8
  store ptr %1, ptr %6, align 8
  store ptr %1, ptr %4, align 8
  store i8 0, ptr %.val, align 8
  %13 = getelementptr inbounds nuw i8, ptr %.val, i64 48
  store i64 -1, ptr %13, align 8
  %14 = getelementptr inbounds nuw i8, ptr %.val, i64 56
  store i64 0, ptr %14, align 8
  %15 = getelementptr inbounds nuw i8, ptr %.val, i64 24
  %16 = load ptr, ptr %15, align 8
  %17 = icmp eq ptr %16, null
  br i1 %17, label %move_mem_copies.exit, label %18

18:                                               ; preds = %2
  %19 = icmp eq ptr %1, %7
  br i1 %19, label %.preheader, label %32

.preheader:                                       ; preds = %18
  %20 = getelementptr inbounds nuw i8, ptr %0, i64 80
  br label %21

21:                                               ; preds = %.preheader, %21
  %.042 = phi ptr [ %16, %.preheader ], [ %23, %21 ]
  tail call void @interval_tree_remove(ptr noundef nonnull %.042, ptr noundef nonnull %20) #9
  %22 = getelementptr inbounds nuw i8, ptr %.042, i64 48
  %23 = load ptr, ptr %22, align 8
  %.not = icmp eq ptr %23, null
  br i1 %.not, label %24, label %21, !llvm.loop !10

24:                                               ; preds = %21
  %25 = load ptr, ptr %15, align 8
  %26 = icmp eq ptr %25, null
  br i1 %26, label %move_mem_copies.exit, label %27

27:                                               ; preds = %24
  %28 = getelementptr inbounds nuw i8, ptr %0, i64 104
  %29 = load ptr, ptr %28, align 8
  store ptr %25, ptr %29, align 8
  %30 = getelementptr inbounds nuw i8, ptr %.val, i64 32
  %31 = load ptr, ptr %30, align 8
  store ptr %31, ptr %28, align 8
  store ptr null, ptr %15, align 8
  store ptr %15, ptr %30, align 8
  br label %move_mem_copies.exit

32:                                               ; preds = %18
  %.val13.i = load i64, ptr %7, align 8
  %33 = and i64 %.val13.i, 30064771072
  %34 = icmp samesign ugt i64 %33, 8589934592
  br i1 %34, label %find_better_copy.exit, label %.preheader.i

.preheader.i:                                     ; preds = %32
  %.pn16.i = load ptr, ptr %9, align 8
  %.011.in17.i = getelementptr inbounds nuw i8, ptr %.pn16.i, i64 16
  %.01118.i = load ptr, ptr %.011.in17.i, align 8
  %.not19.i = icmp eq ptr %.01118.i, %7
  br i1 %.not19.i, label %find_better_copy.exit, label %.lr.ph.i

.lr.ph.i:                                         ; preds = %.preheader.i, %.lr.ph.i
  %35 = phi i64 [ %44, %.lr.ph.i ], [ %.val13.i, %.preheader.i ]
  %.01121.i = phi ptr [ %.011.i, %.lr.ph.i ], [ %.01118.i, %.preheader.i ]
  %.020.i = phi ptr [ %45, %.lr.ph.i ], [ %7, %.preheader.i ]
  %36 = lshr i64 %35, 32
  %37 = trunc nuw i64 %36 to i32
  %38 = and i32 %37, 7
  %39 = load i64, ptr %.01121.i, align 8
  %40 = lshr i64 %39, 32
  %41 = trunc nuw i64 %40 to i32
  %42 = and i32 %41, 7
  %43 = icmp samesign ult i32 %38, %42
  %44 = select i1 %43, i64 %39, i64 %35
  %45 = select i1 %43, ptr %.01121.i, ptr %.020.i
  %.pn.in.i = getelementptr i8, ptr %.01121.i, i64 48
  %.pn.i = load ptr, ptr %.pn.in.i, align 8
  %.011.in.i = getelementptr inbounds nuw i8, ptr %.pn.i, i64 16
  %.011.i = load ptr, ptr %.011.in.i, align 8
  %.not.i = icmp eq ptr %.011.i, %7
  br i1 %.not.i, label %find_better_copy.exit, label %.lr.ph.i, !llvm.loop !8

find_better_copy.exit:                            ; preds = %.lr.ph.i, %32, %.preheader.i
  %.012.i = phi ptr [ %7, %32 ], [ %7, %.preheader.i ], [ %45, %.lr.ph.i ]
  %.val18.i = load ptr, ptr %3, align 8
  %46 = getelementptr i8, ptr %.012.i, i64 48
  %.val.i = load ptr, ptr %46, align 8
  %47 = getelementptr inbounds nuw i8, ptr %.val18.i, i64 24
  %.019.i = load ptr, ptr %47, align 8
  %.not20.i = icmp eq ptr %.019.i, null
  br i1 %.not20.i, label %move_mem_copies.exit, label %.lr.ph.i40

.lr.ph.i40:                                       ; preds = %find_better_copy.exit, %.lr.ph.i40
  %.021.i = phi ptr [ %.0.i, %.lr.ph.i40 ], [ %.019.i, %find_better_copy.exit ]
  %48 = getelementptr inbounds nuw i8, ptr %.021.i, i64 56
  %49 = load ptr, ptr %48, align 8
  %50 = icmp eq ptr %49, %1
  tail call void @llvm.assume(i1 %50)
  store ptr %.012.i, ptr %48, align 8
  %51 = getelementptr inbounds nuw i8, ptr %.021.i, i64 48
  %.0.i = load ptr, ptr %51, align 8
  %.not.i41 = icmp eq ptr %.0.i, null
  br i1 %.not.i41, label %._crit_edge.i, label %.lr.ph.i40, !llvm.loop !11

._crit_edge.i:                                    ; preds = %.lr.ph.i40
  %.pre.i = load ptr, ptr %47, align 8
  %52 = icmp eq ptr %.pre.i, null
  br i1 %52, label %move_mem_copies.exit, label %53

53:                                               ; preds = %._crit_edge.i
  %54 = getelementptr inbounds nuw i8, ptr %.val.i, i64 32
  %55 = load ptr, ptr %54, align 8
  store ptr %.pre.i, ptr %55, align 8
  %56 = getelementptr inbounds nuw i8, ptr %.val18.i, i64 32
  %57 = load ptr, ptr %56, align 8
  store ptr %57, ptr %54, align 8
  store ptr null, ptr %47, align 8
  store ptr %47, ptr %56, align 8
  br label %move_mem_copies.exit

move_mem_copies.exit:                             ; preds = %53, %._crit_edge.i, %find_better_copy.exit, %24, %27, %2
  ret void
}